; Function Attrs: mustprogress nounwind uwtable
define internal fastcc void @_ZL9save_argsP14MacroAssembleriiP9VMRegPair(ptr noundef %0, i32 noundef %1, i32 noundef %2, ptr nocapture noundef readonly %3) unnamed_addr #0 {
  %5 = alloca %class.Address, align 8
  %6 = alloca %class.Address, align 8
  %7 = alloca %class.Address, align 16
  %8 = icmp slt i32 %2, %1
  br i1 %8, label %.lr.ph, label %._crit_edge

.lr.ph:                                           ; preds = %4
  %9 = getelementptr inbounds i8, ptr %7, i64 16
  %10 = getelementptr inbounds i8, ptr %7, i64 20
  %11 = getelementptr inbounds i8, ptr %7, i64 24
  %12 = getelementptr inbounds i8, ptr %7, i64 32
  %13 = getelementptr inbounds i8, ptr %7, i64 40
  %14 = getelementptr inbounds i8, ptr %6, i64 24
  %15 = load ptr, ptr getelementptr inbounds inrange(-32, 56) (i8, ptr @_ZTV10Relocation, i64 32), align 8
  %16 = getelementptr inbounds i8, ptr %5, i64 24
  %17 = sext i32 %2 to i64
  br label %18

18:                                               ; preds = %.lr.ph, %45
  %indvars.iv = phi i64 [ %17, %.lr.ph ], [ %indvars.iv.next, %45 ]
  %19 = getelementptr inbounds %class.VMRegPair, ptr %3, i64 %indvars.iv, i32 1
  %20 = load ptr, ptr %19, align 8
  %21 = load i8, ptr @UseAPX, align 1
  %22 = trunc i8 %21 to i1
  %..i.i = select i1 %22, i32 64, i32 32
  %23 = ptrtoint ptr %20 to i64
  %24 = trunc i64 %23 to i32
  %25 = sub i32 %24, ptrtoint (ptr getelementptr inbounds (i8, ptr @all_VMRegs, i64 1) to i32)
  %26 = icmp ult i32 %25, %..i.i
  br i1 %26, label %27, label %29

27:                                               ; preds = %18
  %28 = lshr i32 %25, 1
  call void @_ZN9Assembler4pushE8Register(ptr noundef nonnull align 8 dereferenceable(40) %0, i32 %28) #14
  br label %45

29:                                               ; preds = %18
  %30 = load i32, ptr @UseAVX, align 4
  %31 = icmp slt i32 %30, 3
  %32 = icmp sgt i32 %25, 79
  %33 = select i1 %31, i32 336, i32 592
  %34 = icmp ult i32 %25, %33
  %35 = select i1 %32, i1 %34, i1 false
  br i1 %35, label %36, label %45

36:                                               ; preds = %29
  call void @_ZN14MacroAssembler6subptrE8Registeri(ptr noundef nonnull align 8 dereferenceable(40) %0, i32 4, i32 noundef 16) #14
  store <4 x i32> <i32 4, i32 -1, i32 -1, i32 -1>, ptr %7, align 16
  store i32 0, ptr %9, align 16
  store i8 0, ptr %10, align 4
  store ptr getelementptr inbounds inrange(-16, 72) (i8, ptr @_ZTV10Relocation, i64 16), ptr %11, align 8
  store ptr null, ptr %12, align 16
  store i32 0, ptr %13, align 8
  %37 = load ptr, ptr %19, align 8
  %38 = ptrtoint ptr %37 to i64
  %39 = trunc i64 %38 to i32
  %40 = add i32 %39, add (i32 sub (i32 0, i32 ptrtoint (ptr getelementptr inbounds (i8, ptr @all_VMRegs, i64 1) to i32)), i32 -80)
  %41 = ashr i32 %40, 4
  %or.cond.i.i17 = icmp ult i32 %41, 32
  %spec.select.i.i18 = select i1 %or.cond.i.i17, i32 %41, i32 -1
  call void @llvm.lifetime.start.p0(i64 64, ptr nonnull %6)
  call void @llvm.memcpy.p0.p0.i64(ptr noundef nonnull align 8 dereferenceable(21) %6, ptr noundef nonnull align 16 dereferenceable(21) %7, i64 21, i1 false)
  call void %15(ptr noundef nonnull align 8 dereferenceable(20) %11, ptr noundef nonnull align 8 dereferenceable(40) %14) #14
  call void @llvm.lifetime.start.p0(i64 64, ptr nonnull %5)
  call void @llvm.memcpy.p0.p0.i64(ptr noundef nonnull align 8 dereferenceable(21) %5, ptr noundef nonnull align 8 dereferenceable(21) %6, i64 21, i1 false)
  %42 = load ptr, ptr %14, align 8
  %43 = getelementptr inbounds i8, ptr %42, i64 16
  %44 = load ptr, ptr %43, align 8
  call void %44(ptr noundef nonnull align 8 dereferenceable(20) %14, ptr noundef nonnull align 8 dereferenceable(40) %16) #14
  call void @_ZN9Assembler5movsdE7Address11XMMRegister(ptr noundef nonnull align 8 dereferenceable(40) %0, ptr noundef nonnull %5, i32 %spec.select.i.i18) #14
  call void @llvm.lifetime.end.p0(i64 64, ptr nonnull %5)
  call void @llvm.lifetime.end.p0(i64 64, ptr nonnull %6)
  br label %45

45:                                               ; preds = %27, %36, %29
  %indvars.iv.next = add nsw i64 %indvars.iv, 1
  %lftr.wideiv = trunc i64 %indvars.iv.next to i32
  %exitcond.not = icmp eq i32 %lftr.wideiv, %1
  br i1 %exitcond.not, label %._crit_edge, label %18, !llvm.loop !36

._crit_edge:                                      ; preds = %45, %4
  ret void
}